target datalayout = "e-m:e-p270:32:32-p271:32:32-p272:64:64-i64:64-i128:128-f80:128-n8:16:32:64-S128"
target triple = "x86_64-pc-linux-gnu"

%"class.datalog::mk_bit_blast" = type { %"class.datalog::rule_transformer::plugin", ptr }
%"class.datalog::rule_transformer::plugin" = type { ptr, i32, i8, ptr }
%"class.datalog::mk_bit_blast::impl" = type { ptr, ptr, %class.params_ref, %"class.datalog::mk_interp_tail_simplifier", %class.bit_blaster_rewriter, %"struct.datalog::expand_mkbv" }
%class.params_ref = type { ptr }
%"class.datalog::mk_interp_tail_simplifier" = type { %"class.datalog::rule_transformer::plugin", ptr, ptr, ptr, %class.arith_util, %"class.datalog::mk_interp_tail_simplifier::rule_substitution", %class.ptr_vector, %class.obj_hashtable, %class.ref_vector.19, %class.ref_vector, %class.ref_vector, %class.svector.24, ptr, ptr }
%class.arith_util = type { ptr, ptr }
%"class.datalog::mk_interp_tail_simplifier::rule_substitution" = type { ptr, ptr, %class.substitution, %class.unifier, %class.obj_ref, %class.ref_vector.19, %class.svector.24, ptr }
%class.substitution = type <{ ptr, %class.var_offset_map, %class.svector.0, %class.ref_vector, %class.svector.3, %class.svector.5, %class.expr_offset_map, %class.ref_vector, %class.expr_offset_map.8, i32, [4 x i8] }>
%class.var_offset_map = type <{ %class.svector, i32, i32, i32, [4 x i8] }>
%class.svector = type { %class.vector }
%class.vector = type { ptr }
%class.svector.0 = type { %class.vector.1 }
%class.vector.1 = type { ptr }
%class.svector.3 = type { %class.vector.4 }
%class.vector.4 = type { ptr }
%class.svector.5 = type { %class.vector.6 }
%class.vector.6 = type { ptr }
%class.expr_offset_map = type <{ %class.vector.7, i32, [4 x i8] }>
%class.vector.7 = type { ptr }
%class.expr_offset_map.8 = type <{ %class.vector.9, i32, [4 x i8] }>
%class.vector.9 = type { ptr }
%class.unifier = type <{ ptr, ptr, %class.svector.11, %class.expr_offset_map.13, %class.expr_offset_map.16, i8, [7 x i8] }>
%class.svector.11 = type { %class.vector.12 }
%class.vector.12 = type { ptr }
%class.expr_offset_map.13 = type <{ %class.vector.14, i32, [4 x i8] }>
%class.vector.14 = type { ptr }
%class.expr_offset_map.16 = type <{ %class.vector.17, i32, [4 x i8] }>
%class.vector.17 = type { ptr }
%class.obj_ref = type { ptr, ptr }
%class.ptr_vector = type { %class.vector.2 }
%class.vector.2 = type { ptr }
%class.obj_hashtable = type { %class.core_hashtable.base, [4 x i8] }
%class.core_hashtable.base = type <{ ptr, i32, i32, i32 }>
%class.ref_vector.19 = type { %class.ref_vector_core.20 }
%class.ref_vector_core.20 = type { %class.ref_manager_wrapper.21, %class.ptr_vector.22 }
%class.ref_manager_wrapper.21 = type { ptr }
%class.ptr_vector.22 = type { %class.vector.23 }
%class.vector.23 = type { ptr }
%class.ref_vector = type { %class.ref_vector_core }
%class.ref_vector_core = type { %class.ref_manager_wrapper, %class.ptr_vector }
%class.ref_manager_wrapper = type { ptr }
%class.svector.24 = type { %class.vector.25 }
%class.vector.25 = type { ptr }
%class.bit_blaster_rewriter = type { ptr }
%"struct.datalog::expand_mkbv" = type { %class.rewriter_tpl, %"class.datalog::expand_mkbv_cfg" }
%class.rewriter_tpl = type { %class.rewriter_core, ptr, i32, %class.ptr_vector, %class.var_shifter, %class.inv_var_shifter, %class.obj_ref.32, %class.obj_ref, %class.obj_ref, %class.svector.3 }
%class.rewriter_core = type { ptr, ptr, i8, i8, %class.ptr_vector.26, ptr, %class.svector.28, %class.ref_vector, %class.ptr_vector.26, ptr, %class.ref_vector.19, %class.obj_hashtable, ptr, i32, %class.svector.30 }
%class.svector.28 = type { %class.vector.29 }
%class.vector.29 = type { ptr }
%class.ptr_vector.26 = type { %class.vector.27 }
%class.vector.27 = type { ptr }
%class.svector.30 = type { %class.vector.31 }
%class.vector.31 = type { ptr }
%class.var_shifter = type <{ %class.var_shifter_core, i32, i32, i32, [4 x i8] }>
%class.var_shifter_core = type { %class.rewriter_core }
%class.inv_var_shifter = type <{ %class.var_shifter_core, i32, [4 x i8] }>
%class.obj_ref.32 = type { ptr, ptr }
%"class.datalog::expand_mkbv_cfg" = type { ptr, ptr, %class.bv_util, %class.ref_vector, %class.ref_vector, %class.ref_vector, %class.ref_vector.33, %class.ref_vector.33, ptr, ptr, %class.obj_map }
%class.bv_util = type { %class.bv_recognizers, ptr, ptr }
%class.bv_recognizers = type { i32 }
%class.ref_vector.33 = type { %class.ref_vector_core.34 }
%class.ref_vector_core.34 = type { %class.ref_manager_wrapper.35, %class.ptr_vector.36 }
%class.ref_manager_wrapper.35 = type { ptr }
%class.ptr_vector.36 = type { %class.vector.37 }
%class.vector.37 = type { ptr }
%class.obj_map = type { %class.core_hashtable.38 }
%class.core_hashtable.38 = type <{ ptr, i32, i32, i32, [4 x i8] }>

@_ZTVN7datalog11expand_mkbvE = linkonce_odr hidden unnamed_addr constant { [4 x ptr] } { [4 x ptr] [ptr null, ptr @_ZTIN7datalog11expand_mkbvE, ptr @_ZN7datalog11expand_mkbvD2Ev, ptr @_ZN7datalog11expand_mkbvD0Ev] }, comdat, align 8

; Function Attrs: inlinehint mustprogress nounwind uwtable
define linkonce_odr hidden void @_ZN7datalog11expand_mkbvD2Ev(ptr noundef nonnull align 8 dereferenceable(696) %0) unnamed_addr #9 comdat align 2 {
  %2 = alloca ptr, align 8
  store ptr %0, ptr %2, align 8, !tbaa !288
  %3 = load ptr, ptr %2, align 8
  store ptr getelementptr inbounds inrange(-16, 16) ({ [4 x ptr] }, ptr @_ZTVN7datalog11expand_mkbvE, i32 0, i32 0, i32 2), ptr %3, align 8, !tbaa !12
  %4 = getelementptr inbounds nuw %"struct.datalog::expand_mkbv", ptr %3, i32 0, i32 1
  call void @_ZN7datalog15expand_mkbv_cfgD2Ev(ptr noundef nonnull align 8 dereferenceable(160) %4) #3
  call void @_ZN12rewriter_tplIN7datalog15expand_mkbv_cfgEED2Ev(ptr noundef nonnull align 8 dereferenceable(536) %3) #3
  ret void
}

; Function Attrs: inlinehint mustprogress nounwind uwtable
define linkonce_odr hidden void @_ZN7datalog12mk_bit_blast4implD2Ev(ptr noundef nonnull align 8 dereferenceable(1152) %0) unnamed_addr #9 comdat align 2 {
  %2 = alloca ptr, align 8
  store ptr %0, ptr %2, align 8, !tbaa !28
  %3 = load ptr, ptr %2, align 8
  %4 = getelementptr inbounds nuw %"class.datalog::mk_bit_blast::impl", ptr %3, i32 0, i32 5
  call void @_ZN7datalog11expand_mkbvD2Ev(ptr noundef nonnull align 8 dereferenceable(696) %4) #3
  %5 = getelementptr inbounds nuw %"class.datalog::mk_bit_blast::impl", ptr %3, i32 0, i32 4
  call void @_ZN20bit_blaster_rewriterD1Ev(ptr noundef nonnull align 8 dereferenceable(8) %5) #3
  %6 = getelementptr inbounds nuw %"class.datalog::mk_bit_blast::impl", ptr %3, i32 0, i32 3
  call void @_ZN7datalog25mk_interp_tail_simplifierD1Ev(ptr noundef nonnull align 8 dereferenceable(424) %6) #3
  %7 = getelementptr inbounds nuw %"class.datalog::mk_bit_blast::impl", ptr %3, i32 0, i32 2
  call void @_ZN10params_refD1Ev(ptr noundef nonnull align 8 dereferenceable(8) %7) #3
  ret void
}

; Function Attrs: mustprogress nounwind uwtable
define linkonce_odr hidden void @_ZN7datalog16rule_transformer6pluginD2Ev(ptr noundef nonnull align 8 dereferenceable(24) %0) unnamed_addr #5 comdat align 2 {
  %2 = alloca ptr, align 8
  store ptr %0, ptr %2, align 8, !tbaa !20
  ret void
}

; Function Attrs: mustprogress uwtable
define linkonce_odr hidden void @_Z7deallocIN7datalog12mk_bit_blast4implEEvPT_(ptr noundef %0) #4 comdat {
  %2 = alloca ptr, align 8
  store ptr %0, ptr %2, align 8, !tbaa !28
  %3 = load ptr, ptr %2, align 8, !tbaa !28
  %4 = icmp eq ptr %3, null
  br i1 %4, label %5, label %6

5:                                                ; preds = %1
  br label %9

6:                                                ; preds = %1
  %7 = load ptr, ptr %2, align 8, !tbaa !28
  call void @_ZN7datalog12mk_bit_blast4implD2Ev(ptr noundef nonnull align 8 dereferenceable(1152) %7) #3
  %8 = load ptr, ptr %2, align 8, !tbaa !28
  call void @_ZN6memory10deallocateEPv(ptr noundef %8)
  br label %9

9:                                                ; preds = %6, %5
  ret void
}

; Function Attrs: mustprogress nounwind uwtable
define hidden void @_ZN7datalog12mk_bit_blastD2Ev(ptr noundef nonnull align 8 dereferenceable(32) %0) unnamed_addr #5 align 2 personality ptr @__gxx_personality_v0 {
  %2 = alloca ptr, align 8
  store ptr %0, ptr %2, align 8, !tbaa !3
  %3 = load ptr, ptr %2, align 8
  store ptr getelementptr inbounds inrange(-16, 32) ({ [6 x ptr] }, ptr @_ZTVN7datalog12mk_bit_blastE, i32 0, i32 0, i32 2), ptr %3, align 8, !tbaa !12
  %4 = getelementptr inbounds nuw %"class.datalog::mk_bit_blast", ptr %3, i32 0, i32 1
  %5 = load ptr, ptr %4, align 8, !tbaa !14
  invoke void @_Z7deallocIN7datalog12mk_bit_blast4implEEvPT_(ptr noundef %5)
          to label %6 unwind label %7

6:                                                ; preds = %1
  call void @_ZN7datalog16rule_transformer6pluginD2Ev(ptr noundef nonnull align 8 dereferenceable(24) %3) #3
  ret void

7:                                                ; preds = %1
  %8 = landingpad { ptr, i32 }
          catch ptr null
  %9 = extractvalue { ptr, i32 } %8, 0
  call void @__clang_call_terminate(ptr %9) #20
  unreachable
}